
main_hw.elf:     file format elf32-littleriscv


Disassembly of section .text:

00000000 <_start>:
   0:	00000013          	nop
   4:	00000013          	nop
   8:	00000013          	nop
   c:	00000013          	nop
  10:	00000013          	nop
  14:	00001197          	auipc	gp,0x1
  18:	9ec18193          	addi	gp,gp,-1556 # a00 <__global_pointer$>
  1c:	60018113          	addi	sp,gp,1536 # 1000 <__stack_top>
  20:	00010433          	add	s0,sp,zero
  24:	20000513          	li	a0,512
  28:	20000593          	li	a1,512
  2c:	00b57863          	bgeu	a0,a1,3c <_start+0x3c>
  30:	00052023          	sw	zero,0(a0)
  34:	00450513          	addi	a0,a0,4
  38:	feb56ce3          	bltu	a0,a1,30 <_start+0x30>
  3c:	3bc000ef          	jal	3f8 <main>
  40:	0000006f          	j	40 <_start+0x40>

00000044 <gal_mul>:
  44:	00050713          	mv	a4,a0
  48:	00800693          	li	a3,8
  4c:	00000513          	li	a0,0
  50:	0100006f          	j	60 <gal_mul+0x1c>
  54:	0015d593          	srli	a1,a1,0x1
  58:	fff68693          	addi	a3,a3,-1
  5c:	02068a63          	beqz	a3,90 <gal_mul+0x4c>
  60:	0015f793          	andi	a5,a1,1
  64:	40f007b3          	neg	a5,a5
  68:	00f777b3          	and	a5,a4,a5
  6c:	00f54533          	xor	a0,a0,a5
  70:	00171793          	slli	a5,a4,0x1
  74:	0ff7f793          	zext.b	a5,a5
  78:	01871613          	slli	a2,a4,0x18
  7c:	41865613          	srai	a2,a2,0x18
  80:	00078713          	mv	a4,a5
  84:	fc0658e3          	bgez	a2,54 <gal_mul+0x10>
  88:	01b7c713          	xori	a4,a5,27
  8c:	fc9ff06f          	j	54 <gal_mul+0x10>
  90:	00008067          	ret

00000094 <aes_encrypt_core>:
  94:	fb010113          	addi	sp,sp,-80
  98:	04112623          	sw	ra,76(sp)
  9c:	04812423          	sw	s0,72(sp)
  a0:	04912223          	sw	s1,68(sp)
  a4:	05212023          	sw	s2,64(sp)
  a8:	03312e23          	sw	s3,60(sp)
  ac:	03412c23          	sw	s4,56(sp)
  b0:	03512a23          	sw	s5,52(sp)
  b4:	03612823          	sw	s6,48(sp)
  b8:	03712623          	sw	s7,44(sp)
  bc:	03812423          	sw	s8,40(sp)
  c0:	03912223          	sw	s9,36(sp)
  c4:	03a12023          	sw	s10,32(sp)
  c8:	01b12e23          	sw	s11,28(sp)
  cc:	00050a13          	mv	s4,a0
  d0:	00000793          	li	a5,0
  d4:	00f12623          	sw	a5,12(sp)
  d8:	010a0793          	addi	a5,s4,16
  dc:	00f12223          	sw	a5,4(sp)
  e0:	00078593          	mv	a1,a5
  e4:	00000513          	li	a0,0
  e8:	00000813          	li	a6,0
  ec:	01000893          	li	a7,16
  f0:	ff058793          	addi	a5,a1,-16
  f4:	00050693          	mv	a3,a0
  f8:	0007c703          	lbu	a4,0(a5)
  fc:	0006c603          	lbu	a2,0(a3)
 100:	00c74733          	xor	a4,a4,a2
 104:	00e78023          	sb	a4,0(a5)
 108:	00478793          	addi	a5,a5,4
 10c:	00168693          	addi	a3,a3,1
 110:	feb794e3          	bne	a5,a1,f8 <sbox+0x8>
 114:	00450513          	addi	a0,a0,4
 118:	00480813          	addi	a6,a6,4
 11c:	00158593          	addi	a1,a1,1
 120:	fd1818e3          	bne	a6,a7,f0 <sbox>
 124:	00c12783          	lw	a5,12(sp)
 128:	01078c93          	addi	s9,a5,16
 12c:	0e078793          	addi	a5,a5,224
 130:	00f12423          	sw	a5,8(sp)
 134:	014a0d13          	addi	s10,s4,20
 138:	00000b93          	li	s7,0
 13c:	01000d93          	li	s11,16
 140:	0100006f          	j	150 <sbox+0x60>
 144:	010c8c93          	addi	s9,s9,16
 148:	00812783          	lw	a5,8(sp)
 14c:	18fc8c63          	beq	s9,a5,2e4 <__bss_end+0xe4>
 150:	004a0c13          	addi	s8,s4,4
 154:	000c0693          	mv	a3,s8
 158:	ffc68793          	addi	a5,a3,-4
 15c:	0007c703          	lbu	a4,0(a5)
 160:	00eb8733          	add	a4,s7,a4
 164:	0f074703          	lbu	a4,240(a4)
 168:	00e78023          	sb	a4,0(a5)
 16c:	00178793          	addi	a5,a5,1
 170:	fed796e3          	bne	a5,a3,15c <sbox+0x6c>
 174:	00468693          	addi	a3,a3,4
 178:	ffa690e3          	bne	a3,s10,158 <sbox+0x68>
 17c:	004a4783          	lbu	a5,4(s4)
 180:	005a4703          	lbu	a4,5(s4)
 184:	00ea0223          	sb	a4,4(s4)
 188:	006a4703          	lbu	a4,6(s4)
 18c:	00ea02a3          	sb	a4,5(s4)
 190:	007a4703          	lbu	a4,7(s4)
 194:	00ea0323          	sb	a4,6(s4)
 198:	00fa03a3          	sb	a5,7(s4)
 19c:	008a4783          	lbu	a5,8(s4)
 1a0:	00aa4703          	lbu	a4,10(s4)
 1a4:	00ea0423          	sb	a4,8(s4)
 1a8:	00fa0523          	sb	a5,10(s4)
 1ac:	009a4783          	lbu	a5,9(s4)
 1b0:	00ba4703          	lbu	a4,11(s4)
 1b4:	00ea04a3          	sb	a4,9(s4)
 1b8:	00fa05a3          	sb	a5,11(s4)
 1bc:	00fa4783          	lbu	a5,15(s4)
 1c0:	00ea4703          	lbu	a4,14(s4)
 1c4:	00ea07a3          	sb	a4,15(s4)
 1c8:	00da4703          	lbu	a4,13(s4)
 1cc:	00ea0723          	sb	a4,14(s4)
 1d0:	00ca4703          	lbu	a4,12(s4)
 1d4:	00ea06a3          	sb	a4,13(s4)
 1d8:	00fa0623          	sb	a5,12(s4)
 1dc:	000a0413          	mv	s0,s4
 1e0:	00044b03          	lbu	s6,0(s0)
 1e4:	00444983          	lbu	s3,4(s0)
 1e8:	00844903          	lbu	s2,8(s0)
 1ec:	00c44a83          	lbu	s5,12(s0)
 1f0:	00200593          	li	a1,2
 1f4:	000b0513          	mv	a0,s6
 1f8:	e4dff0ef          	jal	44 <gal_mul>
 1fc:	00050493          	mv	s1,a0
 200:	00300593          	li	a1,3
 204:	00098513          	mv	a0,s3
 208:	e3dff0ef          	jal	44 <gal_mul>
 20c:	00a4c4b3          	xor	s1,s1,a0
 210:	009944b3          	xor	s1,s2,s1
 214:	009ac4b3          	xor	s1,s5,s1
 218:	00940023          	sb	s1,0(s0)
 21c:	00200593          	li	a1,2
 220:	00098513          	mv	a0,s3
 224:	e21ff0ef          	jal	44 <gal_mul>
 228:	00050493          	mv	s1,a0
 22c:	00300593          	li	a1,3
 230:	00090513          	mv	a0,s2
 234:	e11ff0ef          	jal	44 <gal_mul>
 238:	00a4c4b3          	xor	s1,s1,a0
 23c:	009b44b3          	xor	s1,s6,s1
 240:	009ac4b3          	xor	s1,s5,s1
 244:	00940223          	sb	s1,4(s0)
 248:	00200593          	li	a1,2
 24c:	00090513          	mv	a0,s2
 250:	df5ff0ef          	jal	44 <gal_mul>
 254:	00050493          	mv	s1,a0
 258:	00300593          	li	a1,3
 25c:	000a8513          	mv	a0,s5
 260:	de5ff0ef          	jal	44 <gal_mul>
 264:	00a4c4b3          	xor	s1,s1,a0
 268:	009b44b3          	xor	s1,s6,s1
 26c:	0099c4b3          	xor	s1,s3,s1
 270:	00940423          	sb	s1,8(s0)
 274:	00300593          	li	a1,3
 278:	000b0513          	mv	a0,s6
 27c:	dc9ff0ef          	jal	44 <gal_mul>
 280:	00050493          	mv	s1,a0
 284:	00200593          	li	a1,2
 288:	000a8513          	mv	a0,s5
 28c:	db9ff0ef          	jal	44 <gal_mul>
 290:	00a4c4b3          	xor	s1,s1,a0
 294:	0099c9b3          	xor	s3,s3,s1
 298:	01394933          	xor	s2,s2,s3
 29c:	01240623          	sb	s2,12(s0)
 2a0:	00140413          	addi	s0,s0,1
 2a4:	f3841ee3          	bne	s0,s8,1e0 <sbox+0xf0>
 2a8:	00412583          	lw	a1,4(sp)
 2ac:	00000513          	li	a0,0
 2b0:	ff058793          	addi	a5,a1,-16
 2b4:	019506b3          	add	a3,a0,s9
 2b8:	0007c703          	lbu	a4,0(a5)
 2bc:	0006c603          	lbu	a2,0(a3)
 2c0:	00c74733          	xor	a4,a4,a2
 2c4:	00e78023          	sb	a4,0(a5)
 2c8:	00478793          	addi	a5,a5,4
 2cc:	00168693          	addi	a3,a3,1
 2d0:	feb794e3          	bne	a5,a1,2b8 <__bss_end+0xb8>
 2d4:	00450513          	addi	a0,a0,4
 2d8:	00158593          	addi	a1,a1,1
 2dc:	fdb51ae3          	bne	a0,s11,2b0 <__bss_end+0xb0>
 2e0:	e65ff06f          	j	144 <sbox+0x54>
 2e4:	00000693          	li	a3,0
 2e8:	ffcc0793          	addi	a5,s8,-4
 2ec:	0007c703          	lbu	a4,0(a5)
 2f0:	00e68733          	add	a4,a3,a4
 2f4:	0f074703          	lbu	a4,240(a4)
 2f8:	00e78023          	sb	a4,0(a5)
 2fc:	00178793          	addi	a5,a5,1
 300:	ff8796e3          	bne	a5,s8,2ec <__bss_end+0xec>
 304:	004c0c13          	addi	s8,s8,4
 308:	ffac10e3          	bne	s8,s10,2e8 <__bss_end+0xe8>
 30c:	004a4783          	lbu	a5,4(s4)
 310:	005a4703          	lbu	a4,5(s4)
 314:	00ea0223          	sb	a4,4(s4)
 318:	006a4703          	lbu	a4,6(s4)
 31c:	00ea02a3          	sb	a4,5(s4)
 320:	007a4703          	lbu	a4,7(s4)
 324:	00ea0323          	sb	a4,6(s4)
 328:	00fa03a3          	sb	a5,7(s4)
 32c:	008a4783          	lbu	a5,8(s4)
 330:	00aa4703          	lbu	a4,10(s4)
 334:	00ea0423          	sb	a4,8(s4)
 338:	00fa0523          	sb	a5,10(s4)
 33c:	009a4783          	lbu	a5,9(s4)
 340:	00ba4703          	lbu	a4,11(s4)
 344:	00ea04a3          	sb	a4,9(s4)
 348:	00fa05a3          	sb	a5,11(s4)
 34c:	00fa4783          	lbu	a5,15(s4)
 350:	00ea4703          	lbu	a4,14(s4)
 354:	00ea07a3          	sb	a4,15(s4)
 358:	00da4703          	lbu	a4,13(s4)
 35c:	00ea0723          	sb	a4,14(s4)
 360:	00ca4703          	lbu	a4,12(s4)
 364:	00ea06a3          	sb	a4,13(s4)
 368:	00fa0623          	sb	a5,12(s4)
 36c:	00000593          	li	a1,0
 370:	01000513          	li	a0,16
 374:	00412783          	lw	a5,4(sp)
 378:	ff078793          	addi	a5,a5,-16
 37c:	00c12683          	lw	a3,12(sp)
 380:	0007c703          	lbu	a4,0(a5)
 384:	0e06c603          	lbu	a2,224(a3)
 388:	00c74733          	xor	a4,a4,a2
 38c:	00e78023          	sb	a4,0(a5)
 390:	00478793          	addi	a5,a5,4
 394:	00168693          	addi	a3,a3,1
 398:	00412703          	lw	a4,4(sp)
 39c:	fee792e3          	bne	a5,a4,380 <__bss_end+0x180>
 3a0:	00c12783          	lw	a5,12(sp)
 3a4:	00478793          	addi	a5,a5,4
 3a8:	00f12623          	sw	a5,12(sp)
 3ac:	00458593          	addi	a1,a1,4
 3b0:	00170793          	addi	a5,a4,1
 3b4:	00f12223          	sw	a5,4(sp)
 3b8:	faa59ee3          	bne	a1,a0,374 <__bss_end+0x174>
 3bc:	04c12083          	lw	ra,76(sp)
 3c0:	04812403          	lw	s0,72(sp)
 3c4:	04412483          	lw	s1,68(sp)
 3c8:	04012903          	lw	s2,64(sp)
 3cc:	03c12983          	lw	s3,60(sp)
 3d0:	03812a03          	lw	s4,56(sp)
 3d4:	03412a83          	lw	s5,52(sp)
 3d8:	03012b03          	lw	s6,48(sp)
 3dc:	02c12b83          	lw	s7,44(sp)
 3e0:	02812c03          	lw	s8,40(sp)
 3e4:	02412c83          	lw	s9,36(sp)
 3e8:	02012d03          	lw	s10,32(sp)
 3ec:	01c12d83          	lw	s11,28(sp)
 3f0:	05010113          	addi	sp,sp,80
 3f4:	00008067          	ret

000003f8 <main>:
 3f8:	fe010113          	addi	sp,sp,-32
 3fc:	00112e23          	sw	ra,28(sp)
 400:	00000793          	li	a5,0
 404:	1f07a603          	lw	a2,496(a5)
 408:	1f47a683          	lw	a3,500(a5)
 40c:	1f87a703          	lw	a4,504(a5)
 410:	1fc7a783          	lw	a5,508(a5)
 414:	00c12023          	sw	a2,0(sp)
 418:	00d12223          	sw	a3,4(sp)
 41c:	00e12423          	sw	a4,8(sp)
 420:	00f12623          	sw	a5,12(sp)
 424:	00010513          	mv	a0,sp
 428:	c6dff0ef          	jal	94 <aes_encrypt_core>
 42c:	00014783          	lbu	a5,0(sp)
 430:	01879793          	slli	a5,a5,0x18
 434:	00414703          	lbu	a4,4(sp)
 438:	01071713          	slli	a4,a4,0x10
 43c:	00e7e7b3          	or	a5,a5,a4
 440:	00c14703          	lbu	a4,12(sp)
 444:	00e7e7b3          	or	a5,a5,a4
 448:	00814703          	lbu	a4,8(sp)
 44c:	00871713          	slli	a4,a4,0x8
 450:	00e7e7b3          	or	a5,a5,a4
 454:	00f02023          	sw	a5,0(zero) # 0 <_start>
 458:	00114783          	lbu	a5,1(sp)
 45c:	01879793          	slli	a5,a5,0x18
 460:	00514703          	lbu	a4,5(sp)
 464:	01071713          	slli	a4,a4,0x10
 468:	00e7e7b3          	or	a5,a5,a4
 46c:	00d14703          	lbu	a4,13(sp)
 470:	00e7e7b3          	or	a5,a5,a4
 474:	00914703          	lbu	a4,9(sp)
 478:	00871713          	slli	a4,a4,0x8
 47c:	00e7e7b3          	or	a5,a5,a4
 480:	00f02223          	sw	a5,4(zero) # 4 <_start+0x4>
 484:	00214783          	lbu	a5,2(sp)
 488:	01879793          	slli	a5,a5,0x18
 48c:	00614703          	lbu	a4,6(sp)
 490:	01071713          	slli	a4,a4,0x10
 494:	00e7e7b3          	or	a5,a5,a4
 498:	00e14703          	lbu	a4,14(sp)
 49c:	00e7e7b3          	or	a5,a5,a4
 4a0:	00a14703          	lbu	a4,10(sp)
 4a4:	00871713          	slli	a4,a4,0x8
 4a8:	00e7e7b3          	or	a5,a5,a4
 4ac:	00f02423          	sw	a5,8(zero) # 8 <_start+0x8>
 4b0:	00314783          	lbu	a5,3(sp)
 4b4:	01879793          	slli	a5,a5,0x18
 4b8:	00714703          	lbu	a4,7(sp)
 4bc:	01071713          	slli	a4,a4,0x10
 4c0:	00e7e7b3          	or	a5,a5,a4
 4c4:	00f14703          	lbu	a4,15(sp)
 4c8:	00e7e7b3          	or	a5,a5,a4
 4cc:	00b14703          	lbu	a4,11(sp)
 4d0:	00871713          	slli	a4,a4,0x8
 4d4:	00e7e7b3          	or	a5,a5,a4
 4d8:	00f02623          	sw	a5,12(zero) # c <_start+0xc>
 4dc:	00000013          	nop
 4e0:	ffdff06f          	j	4dc <main+0xe4>
